target datalayout = "e-m:e-p270:32:32-p271:32:32-p272:64:64-i64:64-i128:128-f80:128-n8:16:32:64-S128"
target triple = "x86_64-pc-linux-gnu"

%struct.git_hash_algo = type { ptr, i32, i64, i64, i64, ptr, ptr, ptr, ptr, ptr, ptr, ptr, ptr, ptr }
%struct.repository = type { ptr, ptr, ptr, ptr, ptr, %struct.strmap, %struct.strmap, %struct.repo_path_cache, ptr, ptr, ptr, ptr, %struct.repo_settings, ptr, ptr, ptr, ptr, ptr, ptr, i32, i32, i32, ptr, ptr, i32, i32, i8 }
%struct.strmap = type { %struct.hashmap, ptr, i8 }
%struct.hashmap = type { ptr, ptr, ptr, i32, i32, i32, i32, i8 }
%struct.repo_path_cache = type { ptr, ptr, ptr, ptr, ptr, ptr, ptr }
%struct.repo_settings = type { i32, i32, i32, i32, i32, i32, i32, i32, i32, i32, i32, i32, ptr, i32, i32, i32, i32, i32, i32, i32, i64, i64, i64 }
%struct.stat = type { i64, i64, i64, i32, i32, i32, i32, i64, i64, i64, i64, %struct.timespec, %struct.timespec, %struct.timespec, [3 x i64] }
%struct.timespec = type { i64, i64 }
%struct.commit_graph = type { ptr, i64, i8, i8, i32, %struct.object_id, ptr, ptr, i32, i32, ptr, ptr, ptr, ptr, ptr, ptr, i64, ptr, i64, ptr, i64, ptr, ptr, i64, ptr, ptr }
%struct.object_id = type { [32 x i8], i32 }

@the_repository = external global ptr, align 8
@.str.5 = private unnamed_addr constant [31 x i8] c"commit-graph file is too small\00", align 1
@.str.30 = private unnamed_addr constant [29 x i8] c"Cannot handle files this big\00", align 1
@.str.31 = private unnamed_addr constant [1 x i8] zeroinitializer, align 1
@git_gettext_enabled = external global i32, align 4

; Function Attrs: inlinehint nounwind uwtable
define internal i32 @const_error() #5 {
  ret i32 -1
}

; Function Attrs: inlinehint nounwind uwtable
define internal ptr @_(ptr noundef %0) #5 {
  %2 = alloca ptr, align 8
  %3 = alloca ptr, align 8
  store ptr %0, ptr %3, align 8, !tbaa !65
  %4 = load ptr, ptr %3, align 8, !tbaa !65
  %5 = load i8, ptr %4, align 1, !tbaa !85
  %6 = icmp ne i8 %5, 0
  br i1 %6, label %8, label %7

7:                                                ; preds = %1
  store ptr @.str.31, ptr %2, align 8
  br label %16

8:                                                ; preds = %1
  %9 = load i32, ptr @git_gettext_enabled, align 4, !tbaa !4
  %10 = icmp ne i32 %9, 0
  br i1 %10, label %13, label %11

11:                                               ; preds = %8
  %12 = load ptr, ptr %3, align 8, !tbaa !65
  store ptr %12, ptr %2, align 8
  br label %16

13:                                               ; preds = %8
  %14 = load ptr, ptr %3, align 8, !tbaa !65
  %15 = call ptr @dcgettext(ptr noundef null, ptr noundef %14, i32 noundef 5) #12
  store ptr %15, ptr %2, align 8
  br label %16

16:                                               ; preds = %13, %11, %7
  %17 = load ptr, ptr %2, align 8
  ret ptr %17
}

; Function Attrs: inlinehint nounwind uwtable
define internal i64 @xsize_t(i64 noundef %0) #5 {
  %2 = alloca i64, align 8
  store i64 %0, ptr %2, align 8, !tbaa !73
  %3 = load i64, ptr %2, align 8, !tbaa !73
  %4 = icmp slt i64 %3, 0
  br i1 %4, label %8, label %5

5:                                                ; preds = %1
  %6 = load i64, ptr %2, align 8, !tbaa !73
  %7 = icmp ugt i64 %6, -1
  br i1 %7, label %8, label %9

8:                                                ; preds = %5, %1
  call void (ptr, ...) @die(ptr noundef @.str.30) #13
  unreachable

9:                                                ; preds = %5
  %10 = load i64, ptr %2, align 8, !tbaa !73
  ret i64 %10
}

; Function Attrs: nounwind uwtable
define dso_local ptr @load_commit_graph_one_fd_st(ptr noundef %0, i32 noundef %1, ptr noundef %2, ptr noundef %3) #0 {
  %5 = alloca ptr, align 8
  %6 = alloca ptr, align 8
  %7 = alloca i32, align 4
  %8 = alloca ptr, align 8
  %9 = alloca ptr, align 8
  %10 = alloca ptr, align 8
  %11 = alloca i64, align 8
  %12 = alloca ptr, align 8
  %13 = alloca i32, align 4
  store ptr %0, ptr %6, align 8, !tbaa !8
  store i32 %1, ptr %7, align 4, !tbaa !4
  store ptr %2, ptr %8, align 8, !tbaa !68
  store ptr %3, ptr %9, align 8, !tbaa !44
  call void @llvm.lifetime.start.p0(i64 8, ptr %10) #12
  call void @llvm.lifetime.start.p0(i64 8, ptr %11) #12
  call void @llvm.lifetime.start.p0(i64 8, ptr %12) #12
  %14 = load ptr, ptr %8, align 8, !tbaa !68
  %15 = getelementptr inbounds nuw %struct.stat, ptr %14, i32 0, i32 8
  %16 = load i64, ptr %15, align 8, !tbaa !70
  %17 = call i64 @xsize_t(i64 noundef %16)
  store i64 %17, ptr %11, align 8, !tbaa !73
  %18 = load i64, ptr %11, align 8, !tbaa !73
  %19 = load ptr, ptr @the_repository, align 8, !tbaa !8
  %20 = getelementptr inbounds nuw %struct.repository, ptr %19, i32 0, i32 17
  %21 = load ptr, ptr %20, align 8, !tbaa !74
  %22 = getelementptr inbounds nuw %struct.git_hash_algo, ptr %21, i32 0, i32 2
  %23 = load i64, ptr %22, align 8, !tbaa !75
  %24 = add i64 1080, %23
  %25 = icmp ult i64 %18, %24
  br i1 %25, label %26, label %32

26:                                               ; preds = %4
  %27 = load i32, ptr %7, align 4, !tbaa !4
  %28 = call i32 @close(i32 noundef %27)
  %29 = call ptr @_(ptr noundef @.str.5)
  %30 = call i32 (ptr, ...) @error(ptr noundef %29)
  %31 = call i32 @const_error()
  store ptr null, ptr %5, align 8
  store i32 1, ptr %13, align 4
  br label %56

32:                                               ; preds = %4
  %33 = load i64, ptr %11, align 8, !tbaa !73
  %34 = load i32, ptr %7, align 4, !tbaa !4
  %35 = call ptr @xmmap(ptr noundef null, i64 noundef %33, i32 noundef 1, i32 noundef 2, i32 noundef %34, i64 noundef 0)
  store ptr %35, ptr %10, align 8, !tbaa !78
  %36 = load i32, ptr %7, align 4, !tbaa !4
  %37 = call i32 @close(i32 noundef %36)
  %38 = load ptr, ptr %6, align 8, !tbaa !8
  call void @prepare_repo_settings(ptr noundef %38)
  %39 = load ptr, ptr %6, align 8, !tbaa !8
  %40 = getelementptr inbounds nuw %struct.repository, ptr %39, i32 0, i32 12
  %41 = load ptr, ptr %10, align 8, !tbaa !78
  %42 = load i64, ptr %11, align 8, !tbaa !73
  %43 = call ptr @parse_commit_graph(ptr noundef %40, ptr noundef %41, i64 noundef %42)
  store ptr %43, ptr %12, align 8, !tbaa !79
  %44 = load ptr, ptr %12, align 8, !tbaa !79
  %45 = icmp ne ptr %44, null
  br i1 %45, label %46, label %50

46:                                               ; preds = %32
  %47 = load ptr, ptr %9, align 8, !tbaa !44
  %48 = load ptr, ptr %12, align 8, !tbaa !79
  %49 = getelementptr inbounds nuw %struct.commit_graph, ptr %48, i32 0, i32 7
  store ptr %47, ptr %49, align 8, !tbaa !80
  br label %54

50:                                               ; preds = %32
  %51 = load ptr, ptr %10, align 8, !tbaa !78
  %52 = load i64, ptr %11, align 8, !tbaa !73
  %53 = call i32 @munmap(ptr noundef %51, i64 noundef %52) #12
  br label %54

54:                                               ; preds = %50, %46
  %55 = load ptr, ptr %12, align 8, !tbaa !79
  store ptr %55, ptr %5, align 8
  store i32 1, ptr %13, align 4
  br label %56

56:                                               ; preds = %54, %26
  call void @llvm.lifetime.end.p0(i64 8, ptr %12) #12
  call void @llvm.lifetime.end.p0(i64 8, ptr %11) #12
  call void @llvm.lifetime.end.p0(i64 8, ptr %10) #12
  %57 = load ptr, ptr %5, align 8
  ret ptr %57
}