; Function Attrs: nounwind uwtable
define dso_local noundef ptr @load_commit_graph_one_fd_st(ptr noundef %0, i32 noundef %1, ptr noundef readonly captures(none) %2, ptr noundef %3) local_unnamed_addr #0 {
  %5 = getelementptr inbounds nuw i8, ptr %2, i64 48
  %6 = load i64, ptr %5, align 8, !tbaa !68
  %7 = icmp slt i64 %6, 0
  br i1 %7, label %8, label %xsize_t.exit

8:                                                ; preds = %4
  tail call void (ptr, ...) @die(ptr noundef nonnull @.str.30) #25
  unreachable

xsize_t.exit:                                     ; preds = %4
  %9 = load ptr, ptr @the_repository, align 8, !tbaa !4
  %10 = getelementptr inbounds nuw i8, ptr %9, i64 400
  %11 = load ptr, ptr %10, align 8, !tbaa !71
  %12 = getelementptr inbounds nuw i8, ptr %11, i64 16
  %13 = load i64, ptr %12, align 8, !tbaa !72
  %14 = add i64 %13, 1080
  %15 = icmp ult i64 %6, %14
  br i1 %15, label %16, label %22

16:                                               ; preds = %xsize_t.exit
  %17 = tail call i32 @close(i32 noundef %1) #24
  %18 = load i32, ptr @git_gettext_enabled, align 4, !tbaa !47
  %.not4.i = icmp eq i32 %18, 0
  br i1 %.not4.i, label %_.exit, label %19

19:                                               ; preds = %16
  %20 = tail call ptr @dcgettext(ptr noundef null, ptr noundef nonnull @.str.5, i32 noundef 5) #24
  br label %_.exit

_.exit:                                           ; preds = %16, %19
  %.0.i = phi ptr [ %20, %19 ], [ @.str.5, %16 ]
  %21 = tail call i32 (ptr, ...) @error(ptr noundef %.0.i) #24
  br label %31

22:                                               ; preds = %xsize_t.exit
  %23 = tail call ptr @xmmap(ptr noundef null, i64 noundef %6, i32 noundef 1, i32 noundef 2, i32 noundef %1, i64 noundef 0) #24
  %24 = tail call i32 @close(i32 noundef %1) #24
  tail call void @prepare_repo_settings(ptr noundef %0) #24
  %25 = getelementptr inbounds nuw i8, ptr %0, i64 256
  %26 = tail call ptr @parse_commit_graph(ptr noundef nonnull %25, ptr noundef %23, i64 noundef %6)
  %.not = icmp eq ptr %26, null
  br i1 %.not, label %29, label %27

27:                                               ; preds = %22
  %28 = getelementptr inbounds nuw i8, ptr %26, i64 72
  store ptr %3, ptr %28, align 8, !tbaa !75
  br label %31

29:                                               ; preds = %22
  %30 = tail call i32 @munmap(ptr noundef %23, i64 noundef %6) #24
  br label %31

31:                                               ; preds = %27, %29, %_.exit
  %.0 = phi ptr [ null, %_.exit ], [ null, %29 ], [ %26, %27 ]
  ret ptr %.0
}